target datalayout = "e-m:e-p270:32:32-p271:32:32-p272:64:64-i64:64-i128:128-f80:128-n8:16:32:64-S128"
target triple = "x86_64-unknown-linux-gnu"

%struct.uv_buf_t = type { ptr, i64 }

; Function Attrs: mustprogress nounwind uwtable
define internal void @_ZN4node9inspector12_GLOBAL__N_115allocate_bufferEP11uv_handle_smP8uv_buf_t(ptr noundef %stream, i64 noundef %len, ptr noundef %buf) #0 {
entry:
  %stream.addr = alloca ptr, align 8
  %len.addr = alloca i64, align 8
  %buf.addr = alloca ptr, align 8
  %ref.tmp = alloca %struct.uv_buf_t, align 8
  store ptr %stream, ptr %stream.addr, align 8
  store i64 %len, ptr %len.addr, align 8
  store ptr %buf, ptr %buf.addr, align 8
  %0 = load i64, ptr %len.addr, align 8
  %call = call noalias noundef nonnull ptr @_Znam(i64 noundef %0) #15
  %1 = load i64, ptr %len.addr, align 8
  %conv = trunc i64 %1 to i32
  %call1 = call { ptr, i64 } @uv_buf_init(ptr noundef %call, i32 noundef %conv)
  %2 = getelementptr inbounds { ptr, i64 }, ptr %ref.tmp, i32 0, i32 0
  %3 = extractvalue { ptr, i64 } %call1, 0
  store ptr %3, ptr %2, align 8
  %4 = getelementptr inbounds { ptr, i64 }, ptr %ref.tmp, i32 0, i32 1
  %5 = extractvalue { ptr, i64 } %call1, 1
  store i64 %5, ptr %4, align 8
  %6 = load ptr, ptr %buf.addr, align 8
  call void @llvm.memcpy.p0.p0.i64(ptr align 8 %6, ptr align 8 %ref.tmp, i64 16, i1 false)
  ret void
}