; Function Attrs: mustprogress nounwind uwtable
define internal void @_ZN4node9inspector12_GLOBAL__N_115allocate_bufferEP11uv_handle_smP8uv_buf_t(ptr nocapture readnone %stream, i64 noundef %len, ptr nocapture noundef writeonly %buf) #0 {
entry:
  %call = tail call noalias noundef nonnull ptr @_Znam(i64 noundef %len) #21
  %conv = trunc i64 %len to i32
  %call1 = tail call { ptr, i64 } @uv_buf_init(ptr noundef nonnull %call, i32 noundef %conv) #19
  %0 = extractvalue { ptr, i64 } %call1, 0
  %1 = extractvalue { ptr, i64 } %call1, 1
  store ptr %0, ptr %buf, align 8
  %ref.tmp.sroa.2.0..sroa_idx = getelementptr inbounds i8, ptr %buf, i64 8
  store i64 %1, ptr %ref.tmp.sroa.2.0..sroa_idx, align 8
  ret void
}